Certificate:
    Data:
        Version: 3 (0x2)
        Serial Number: 0 (0x0)
        Signature Algorithm: md5WithRSAEncryption
        Issuer: O=TatraMed s.r.o.
        Validity
            Not Before: Jun 15 15:44:08 2005 GMT
            Not After : Mar  5 09:09:28 2031 GMT
        Subject: O=TatraMed s.r.o.
        Subject Public Key Info:
            Public Key Algorithm: rsaEncryption
            RSA Public Key: (4096 bit)
                Modulus (4096 bit):
                    00:c4:2f:8a:9e:be:ea:9a:11:66:a2:c1:ca:2c:0a:
                    c5:6c:c3:5a:07:24:27:7f:5f:4c:f6:6e:59:47:fa:
                    a8:1b:02:f9:f6:8b:73:71:c8:6d:eb:69:38:67:da:
                    00:97:a6:a2:ba:73:71:15:6c:93:0c:49:31:87:1e:
                    a6:1c:95:40:4e:4e:92:48:75:64:49:06:9d:58:4e:
                    b8:64:0a:27:92:96:de:37:2d:3b:ef:73:db:7b:2d:
                    0f:3f:b1:0f:27:6a:4e:22:2d:be:f0:d7:3f:9c:08:
                    4f:fd:d0:1e:e9:8d:76:c8:bf:7d:98:b2:2a:e4:ec:
                    82:55:db:2d:4f:ed:50:97:32:64:00:23:2d:d1:a0:
                    fd:a9:29:84:e5:69:dd:7c:cf:3e:e6:b5:44:a1:77:
                    95:01:79:dd:ae:09:ff:7c:da:f7:59:3b:27:7a:f9:
                    03:65:5a:38:fe:37:eb:2f:2c:9b:57:7d:ab:3a:aa:
                    8e:93:3a:5e:df:8d:52:1a:7a:4b:c0:5f:88:ea:70:
                    31:01:6f:43:71:f1:59:3b:0e:c2:bd:03:c1:08:8c:
                    5d:b5:44:97:1b:59:fd:4d:6f:ed:ab:f5:37:3a:1f:
                    1e:4a:ae:11:ad:a0:bb:f1:b8:ba:96:71:f6:6c:e5:
                    80:4a:3a:de:14:fe:f3:eb:ec:65:a6:4b:32:45:ad:
                    30:51:60:75:15:a5:96:e3:44:86:fb:cd:7f:0b:ba:
                    2e:1d:16:6e:8d:23:a9:94:56:53:d1:2b:fe:67:66:
                    0b:32:da:7c:b7:62:d9:ce:62:22:8d:74:01:d5:22:
                    36:52:6c:fe:c5:d1:69:37:9d:c2:c7:b9:f5:9e:0e:
                    a5:82:ad:83:fc:9d:87:ed:ed:fc:d7:b0:37:68:df:
                    d4:83:95:92:09:21:63:d2:2b:e2:00:27:13:77:3e:
                    08:a6:a1:77:f1:d4:0d:29:83:02:6a:5a:30:c3:1c:
                    e9:23:33:c8:34:b0:0f:d5:ba:d1:9a:a4:5e:70:30:
                    41:11:03:67:6f:6e:3f:b4:5f:9f:51:7c:10:09:01:
                    35:97:db:75:69:5d:46:c0:6a:6a:3e:6d:70:c2:74:
                    0e:31:22:81:4e:a1:03:7e:db:8a:a7:f8:b3:0c:df:
                    bb:bd:e0:92:40:f2:8b:8d:d6:da:86:1c:dd:8f:03:
                    a9:7a:0e:9b:93:53:16:d7:95:29:97:99:c4:41:c1:
                    86:22:d5:de:fa:b7:a6:51:08:ed:c8:62:11:8d:64:
                    f2:98:1a:31:dc:f8:e7:50:1c:c5:eb:69:e6:8f:29:
                    65:77:f6:22:9a:b0:2f:43:de:f0:83:ab:3f:04:78:
                    a6:8d:86:01:4a:84:67:40:75:22:0d:8a:1d:eb:46:
                    e1:1d:31
                Exponent: 65537 (0x10001)
        X509v3 extensions:
            X509v3 Subject Key Identifier: 
                91:D9:CF:61:F1:C5:7F:95:AF:03:6E:05:B4:6F:B4:28:70:82:B4:34
            X509v3 Authority Key Identifier: 
                keyid:91:D9:CF:61:F1:C5:7F:95:AF:03:6E:05:B4:6F:B4:28:70:82:B4:34
                DirName:/O=TatraMed s.r.o.
                serial:00

            X509v3 Basic Constraints: 
                CA:TRUE
    Signature Algorithm: md5WithRSAEncryption
        06:71:8d:3e:81:bd:ec:7e:08:ad:9f:9b:83:5c:3e:a7:02:6b:
        a4:39:61:f8:ee:bf:af:75:bf:4a:20:79:c6:87:a7:7e:46:32:
        f2:5c:06:f2:ed:ba:54:d0:14:30:13:7f:7a:ac:28:24:76:4e:
        24:1a:c7:74:52:08:f0:29:6b:5a:71:bb:6b:cf:5e:cc:29:ff:
        05:64:29:07:3f:74:98:56:4f:da:e5:ae:9c:23:32:55:03:17:
        11:26:3a:84:16:77:2a:e9:fc:b1:8a:04:d5:69:e1:d2:fa:6c:
        42:29:b1:9c:86:d1:e5:33:42:8c:bd:aa:5a:ae:7a:51:35:d2:
        1c:47:4d:e8:51:f5:b8:70:19:21:23:5b:b5:fa:e7:d2:04:be:
        bd:bf:d7:41:03:9a:d1:25:71:b8:94:31:d0:ac:7a:12:a9:37:
        37:b3:7c:4b:25:84:ba:8a:50:17:41:fb:c4:c8:64:e5:ce:9f:
        ea:ed:61:cb:75:36:29:6c:74:05:e0:16:46:40:7c:a2:fd:86:
        c4:23:27:b9:b7:ee:0f:3a:ee:6e:9e:d5:13:18:cf:0a:3a:28:
        c9:fa:fc:88:35:47:9d:c0:ec:c8:12:9c:49:18:fa:2e:ac:4f:
        d7:29:5f:5b:59:60:03:b6:36:cd:d3:1e:a0:22:a2:ca:c9:70:
        63:21:66:bc:e6:d5:d6:d1:0d:ec:e9:ad:a3:f3:e6:33:2d:68:
        e4:09:05:7b:c2:83:94:85:df:82:83:5c:c7:e7:6f:45:27:39:
        56:28:09:37:83:68:10:7f:08:21:e8:3d:78:fa:c2:a0:e2:07:
        d8:8c:49:80:ae:58:46:60:57:44:3a:44:45:c9:fc:31:d6:7a:
        c3:4e:90:0c:b3:90:c2:08:49:91:98:47:c6:e7:27:b8:65:5c:
        10:db:8c:86:ee:23:d3:73:bc:c0:29:9c:1d:23:ae:0f:41:1e:
        fa:96:85:e4:7b:63:8d:df:c0:51:10:f8:22:3b:dd:bc:22:e3:
        06:5c:e2:4e:37:71:64:99:4b:e6:eb:06:72:e1:83:81:7b:13:
        cb:00:17:9a:39:8b:b3:c8:eb:58:53:e8:ad:22:ed:b5:50:cb:
        50:72:6e:e3:ba:f0:48:10:b9:d5:b0:7f:eb:fb:1d:a4:0c:4a:
        fd:02:d2:e6:a2:31:7f:30:4b:49:c8:b6:e7:74:cd:01:f9:45:
        ba:4a:4e:ff:00:6b:5d:e6:87:62:8a:63:d2:92:fb:bf:75:db:
        e9:6d:33:34:92:58:44:30:11:77:4d:ee:3e:dd:fe:3a:aa:6e:
        cc:4f:44:40:93:55:24:a1:fd:e7:fc:4d:2d:1b:6f:89:84:f5:
        f2:59:3b:25:1d:49:6d:a7
-----BEGIN CERTIFICATE-----
MIIFIjCCAwqgAwIBAgIBADANBgkqhkiG9w0BAQQFADAaMRgwFgYDVQQKEw9UYXRy
YU1lZCBzLnIuby4wHhcNMDUwNjE1MTU0NDA4WhcNMzEwMzA1MDkwOTI4WjAaMRgw
FgYDVQQKEw9UYXRyYU1lZCBzLnIuby4wggIiMA0GCSqGSIb3DQEBAQUAA4ICDwAw
ggIKAoICAQDEL4qevuqaEWaiwcosCsVsw1oHJCd/X0z2bllH+qgbAvn2i3NxyG3r
aThn2gCXpqK6c3EVbJMMSTGHHqYclUBOTpJIdWRJBp1YTrhkCieSlt43LTvvc9t7
LQ8/sQ8nak4iLb7w1z+cCE/90B7pjXbIv32Ysirk7IJV2y1P7VCXMmQAIy3RoP2p
KYTlad18zz7mtUShd5UBed2uCf982vdZOyd6+QNlWjj+N+svLJtXfas6qo6TOl7f
jVIaekvAX4jqcDEBb0Nx8Vk7DsK9A8EIjF21RJcbWf1Nb+2r9Tc6Hx5KrhGtoLvx
uLqWcfZs5YBKOt4U/vPr7GWmSzJFrTBRYHUVpZbjRIb7zX8Lui4dFm6NI6mUVlPR
K/5nZgsy2ny3YtnOYiKNdAHVIjZSbP7F0Wk3ncLHufWeDqWCrYP8nYft7fzXsDdo
39SDlZIJIWPSK+IAJxN3PgimoXfx1A0pgwJqWjDDHOkjM8g0sA/VutGapF5wMEER
A2dvbj+0X59RfBAJATWX23VpXUbAamo+bXDCdA4xIoFOoQN+24qn+LMM37u94JJA
8ouN1tqGHN2PA6l6DpuTUxbXlSmXmcRBwYYi1d76t6ZRCO3IYhGNZPKYGjHc+OdQ
HMXraeaPKWV39iKasC9D3vCDqz8EeKaNhgFKhGdAdSINih3rRuEdMQIDAQABo3Mw
cTAdBgNVHQ4EFgQUkdnPYfHFf5WvA24FtG+0KHCCtDQwQgYDVR0jBDswOYAUkdnP
YfHFf5WvA24FtG+0KHCCtDShHqQcMBoxGDAWBgNVBAoTD1RhdHJhTWVkIHMuci5v
LoIBADAMBgNVHRMEBTADAQH/MA0GCSqGSIb3DQEBBAUAA4ICAQAGcY0+gb3sfgit
n5uDXD6nAmukOWH47r+vdb9KIHnGh6d+RjLyXAby7bpU0BQwE396rCgkdk4kGsd0
UgjwKWtacbtrz17MKf8FZCkHP3SYVk/a5a6cIzJVAxcRJjqEFncq6fyxigTVaeHS
+mxCKbGchtHlM0KMvaparnpRNdIcR03oUfW4cBkhI1u1+ufSBL69v9dBA5rRJXG4
lDHQrHoSqTc3s3xLJYS6ilAXQfvEyGTlzp/q7WHLdTYpbHQF4BZGQHyi/YbEIye5
t+4POu5untUTGM8KOijJ+vyINUedwOzIEpxJGPourE/XKV9bWWADtjbN0x6gIqLK
yXBjIWa85tXW0Q3s6a2j8+YzLWjkCQV7woOUhd+Cg1zH529FJzlWKAk3g2gQfwgh
6D14+sKg4gfYjEmArlhGYFdEOkRFyfwx1nrDTpAMs5DCCEmRmEfG5ye4ZVwQ24yG
7iPTc7zAKZwdI64PQR76loXke2ON38BREPgiO928IuMGXOJON3FkmUvm6wZy4YOB
exPLABeaOYuzyOtYU+itIu21UMtQcm7juvBIELnVsH/r+x2kDEr9AtLmojF/MEtJ
yLbndM0B+UW6Sk7/AGtd5odiimPSkvu/ddvpbTM0klhEMBF3Te4+3f46qm7MT0RA
k1Ukof3n/E0tG2+JhPXyWTslHUltpw==
-----END CERTIFICATE-----
