Certificate:
    Data:
        Version: 3 (0x2)
        Serial Number: 0 (0x0)
        Signature Algorithm: md5WithRSAEncryption
        Issuer: O=TatraMed s.r.o.
        Validity
            Not Before: Apr  7 12:23:21 2006 GMT
            Not After : Dec 26 05:48:41 2031 GMT
        Subject: O=TatraMed s.r.o.
        Subject Public Key Info:
            Public Key Algorithm: rsaEncryption
            RSA Public Key: (4096 bit)
                Modulus (4096 bit):
                    00:b7:97:b9:fb:23:c2:b7:ca:11:86:65:13:b1:19:
                    44:71:74:ea:0a:bd:8f:07:9c:58:e4:a8:03:23:47:
                    c3:a0:81:ad:f3:71:0d:c5:99:af:33:de:c3:54:92:
                    a3:ad:1b:ce:b5:7e:77:6f:15:ad:ef:ad:32:9d:60:
                    40:eb:ca:2d:bb:3e:5d:63:cd:ae:93:0e:43:72:0e:
                    08:8c:ee:aa:57:2b:eb:fb:83:94:d0:03:a5:f2:da:
                    5a:29:f2:be:32:31:41:bc:06:de:55:82:3d:49:cc:
                    2f:24:e2:7e:9b:44:1e:1d:38:ce:28:d4:ad:a2:0b:
                    77:72:4f:7c:6b:e1:65:30:38:e8:66:fe:dd:37:cf:
                    ed:b8:3c:f3:ed:24:aa:0b:76:b3:c3:2a:60:48:de:
                    d5:53:2e:ea:92:b3:48:9c:5b:72:f6:57:e3:c9:16:
                    36:5f:4f:67:34:97:f7:83:ec:e0:3a:c9:14:97:b2:
                    29:22:84:75:eb:25:cc:08:41:c1:2d:fa:cb:06:a2:
                    0b:27:3b:3b:dd:94:5f:93:2b:58:57:07:1c:bf:c1:
                    b0:8a:d3:89:f5:99:1f:7d:f1:43:1f:16:cf:c6:af:
                    47:90:69:48:1c:af:e3:1e:4c:08:b1:09:38:89:15:
                    4f:70:d5:df:fa:0d:dd:3e:5c:99:19:48:e5:fe:e5:
                    92:44:4c:d7:5e:0b:ed:2f:14:e4:aa:f0:8a:d6:42:
                    e0:76:c7:83:1d:1c:2f:e5:b4:f6:80:20:56:5d:08:
                    78:91:e2:bf:c1:6e:dc:e0:4a:56:fd:65:3f:b1:33:
                    40:cf:92:de:0a:1c:af:49:11:3d:89:e5:70:11:af:
                    a3:6b:1e:a6:22:9d:fb:b0:9b:4f:07:b1:fb:de:8c:
                    d2:4f:12:b7:9b:06:f5:bc:dd:be:bd:59:c1:0d:f7:
                    6c:5c:2f:a1:01:a6:b4:43:3c:3f:c7:45:f4:c1:21:
                    77:65:2b:a3:b4:f1:21:98:9b:82:3d:f4:93:5e:5d:
                    52:1b:85:39:42:67:5f:2f:13:9f:b2:ab:00:8d:89:
                    1d:8f:05:06:6e:fe:1e:1b:51:23:a9:76:73:66:e4:
                    43:ae:17:2a:fe:ef:94:7a:81:d2:7c:1b:c9:c0:2d:
                    78:c4:25:0d:b7:7c:c8:6b:a0:61:4a:a4:89:0e:da:
                    59:c7:cf:07:31:c7:0c:9e:b4:f7:1c:3b:d6:9d:4d:
                    5a:da:c0:40:29:82:8a:b8:24:db:e4:df:33:67:41:
                    c8:4b:ad:35:4f:e2:45:90:2f:94:ef:9f:9f:00:76:
                    f6:94:89:db:2c:58:3f:ad:61:bf:8f:9c:19:4c:75:
                    6d:18:12:d6:8b:17:b9:b8:af:96:cd:83:d5:67:fb:
                    a6:1b:cd
                Exponent: 65537 (0x10001)
        X509v3 extensions:
            X509v3 Subject Key Identifier: 
                0C:5A:A8:A3:BC:4E:1E:70:C0:79:C3:6C:E9:CE:28:ED:FD:D1:2E:D2
            X509v3 Authority Key Identifier: 
                keyid:0C:5A:A8:A3:BC:4E:1E:70:C0:79:C3:6C:E9:CE:28:ED:FD:D1:2E:D2
                DirName:/O=TatraMed s.r.o.
                serial:00

            X509v3 Basic Constraints: 
                CA:TRUE
    Signature Algorithm: md5WithRSAEncryption
        a0:37:b3:27:ad:1d:c1:a4:b9:de:b4:d3:37:ac:52:92:51:31:
        0f:22:e4:ba:a2:44:9d:50:25:88:41:ca:0d:32:e2:c0:ad:b3:
        69:80:a4:c9:8f:00:dc:c1:89:df:4e:c6:d8:ff:53:09:72:35:
        ba:a4:e4:a9:81:92:fb:44:77:eb:8c:9a:73:a1:24:93:0a:08:
        42:19:f5:49:50:b2:4c:c6:39:5f:48:fe:4e:b4:e1:9b:5a:c4:
        15:8d:93:97:11:43:7d:45:90:ba:33:ef:1a:ef:f1:3b:ba:c4:
        26:db:b8:68:ec:f9:09:04:b6:27:b1:23:5f:bf:7e:ff:d0:30:
        67:d1:1c:52:76:5e:69:18:f3:c8:dc:b5:2d:16:21:3e:ea:10:
        bf:04:32:7c:90:f8:a4:f2:1b:f6:16:a8:84:1f:62:76:55:eb:
        19:d9:e3:5d:e0:18:c4:f0:c2:bf:e1:3c:e8:e7:f9:34:a5:98:
        45:be:2f:e5:a7:cb:f4:d9:22:0d:d3:2e:e8:2a:c6:f2:1c:1c:
        54:e3:09:2f:41:0b:00:0f:22:87:89:3b:17:4b:d4:8f:78:cc:
        28:3e:71:78:58:05:63:eb:dd:0c:70:c8:85:45:0c:35:73:08:
        60:34:6a:14:6f:9b:47:09:3c:09:82:49:c2:9b:85:5c:0c:75:
        1b:d5:11:e2:0c:cb:cb:5b:f2:f1:fe:7b:20:26:f4:bc:ea:81:
        9f:f0:1f:98:bf:d1:1a:7b:18:e3:c3:db:3f:6f:c0:19:0e:f7:
        97:cd:8d:05:79:24:71:35:73:79:c0:4a:48:a5:96:8b:92:cf:
        f3:d2:e8:c8:d8:bf:cc:19:be:5b:21:95:c7:6a:47:53:32:d0:
        4f:be:a8:6d:63:b4:55:ab:be:df:ef:48:25:d5:7e:dd:b1:d9:
        57:bc:1a:73:d5:8e:13:d3:ec:34:40:cf:c5:c4:fe:e3:3f:cf:
        9f:5e:63:1d:ff:a6:db:b4:08:a1:45:9c:1a:c3:d7:d8:05:eb:
        a5:6a:48:30:4f:8d:b9:4a:5e:87:8a:af:77:c4:fc:71:45:27:
        6a:04:99:0d:46:ff:5e:ff:8a:34:83:92:c8:69:ca:94:5f:54:
        74:3a:5e:46:00:c8:1a:02:50:85:49:93:e7:f5:0b:35:a7:df:
        43:d6:58:f0:95:cd:9f:15:e5:fa:bf:1c:84:33:fb:b2:85:ad:
        bc:86:60:a9:42:c8:07:98:38:3e:1e:20:75:0e:b1:74:8a:5e:
        3a:7a:4f:ff:b3:2d:f2:19:3e:55:9c:b9:28:67:2c:62:ad:d5:
        ce:8b:2f:fb:de:bf:6b:a2:37:50:73:99:d4:96:ca:be:a3:3d:
        9d:24:4a:ef:43:31:44:b8
-----BEGIN CERTIFICATE-----
MIIFIjCCAwqgAwIBAgIBADANBgkqhkiG9w0BAQQFADAaMRgwFgYDVQQKEw9UYXRy
YU1lZCBzLnIuby4wHhcNMDYwNDA3MTIyMzIxWhcNMzExMjI2MDU0ODQxWjAaMRgw
FgYDVQQKEw9UYXRyYU1lZCBzLnIuby4wggIiMA0GCSqGSIb3DQEBAQUAA4ICDwAw
ggIKAoICAQC3l7n7I8K3yhGGZROxGURxdOoKvY8HnFjkqAMjR8Ogga3zcQ3Fma8z
3sNUkqOtG861fndvFa3vrTKdYEDryi27Pl1jza6TDkNyDgiM7qpXK+v7g5TQA6Xy
2lop8r4yMUG8Bt5Vgj1JzC8k4n6bRB4dOM4o1K2iC3dyT3xr4WUwOOhm/t03z+24
PPPtJKoLdrPDKmBI3tVTLuqSs0icW3L2V+PJFjZfT2c0l/eD7OA6yRSXsikihHXr
JcwIQcEt+ssGogsnOzvdlF+TK1hXBxy/wbCK04n1mR998UMfFs/Gr0eQaUgcr+Me
TAixCTiJFU9w1d/6Dd0+XJkZSOX+5ZJETNdeC+0vFOSq8IrWQuB2x4MdHC/ltPaA
IFZdCHiR4r/BbtzgSlb9ZT+xM0DPkt4KHK9JET2J5XARr6NrHqYinfuwm08Hsfve
jNJPErebBvW83b69WcEN92xcL6EBprRDPD/HRfTBIXdlK6O08SGYm4I99JNeXVIb
hTlCZ18vE5+yqwCNiR2PBQZu/h4bUSOpdnNm5EOuFyr+75R6gdJ8G8nALXjEJQ23
fMhroGFKpIkO2lnHzwcxxwyetPccO9adTVrawEApgoq4JNvk3zNnQchLrTVP4kWQ
L5Tvn58AdvaUidssWD+tYb+PnBlMdW0YEtaLF7m4r5bNg9Vn+6YbzQIDAQABo3Mw
cTAdBgNVHQ4EFgQUDFqoo7xOHnDAecNs6c4o7f3RLtIwQgYDVR0jBDswOYAUDFqo
o7xOHnDAecNs6c4o7f3RLtKhHqQcMBoxGDAWBgNVBAoTD1RhdHJhTWVkIHMuci5v
LoIBADAMBgNVHRMEBTADAQH/MA0GCSqGSIb3DQEBBAUAA4ICAQCgN7MnrR3BpLne
tNM3rFKSUTEPIuS6okSdUCWIQcoNMuLArbNpgKTJjwDcwYnfTsbY/1MJcjW6pOSp
gZL7RHfrjJpzoSSTCghCGfVJULJMxjlfSP5OtOGbWsQVjZOXEUN9RZC6M+8a7/E7
usQm27ho7PkJBLYnsSNfv37/0DBn0RxSdl5pGPPI3LUtFiE+6hC/BDJ8kPik8hv2
FqiEH2J2VesZ2eNd4BjE8MK/4Tzo5/k0pZhFvi/lp8v02SIN0y7oKsbyHBxU4wkv
QQsADyKHiTsXS9SPeMwoPnF4WAVj690McMiFRQw1cwhgNGoUb5tHCTwJgknCm4Vc
DHUb1RHiDMvLW/Lx/nsgJvS86oGf8B+Yv9Eaexjjw9s/b8AZDveXzY0FeSRxNXN5
wEpIpZaLks/z0ujI2L/MGb5bIZXHakdTMtBPvqhtY7RVq77f70gl1X7dsdlXvBpz
1Y4T0+w0QM/FxP7jP8+fXmMd/6bbtAihRZwaw9fYBeulakgwT425Sl6Hiq93xPxx
RSdqBJkNRv9e/4o0g5LIacqUX1R0Ol5GAMgaAlCFSZPn9Qs1p99D1ljwlc2fFeX6
vxyEM/uyha28hmCpQsgHmDg+HiB1DrF0il46ek//sy3yGT5VnLkoZyxirdXOiy/7
3r9rojdQc5nUlsq+oz2dJErvQzFEuA==
-----END CERTIFICATE-----
